target datalayout = "e-m:e-p270:32:32-p271:32:32-p272:64:64-i64:64-i128:128-f80:128-n8:16:32:64-S128"
target triple = "x86_64-pc-linux-gnu"

%class.fixed_bit_vector = type { [1 x i32] }
%class.fixed_bit_vector_manager = type <{ %class.small_object_allocator, i32, i32, i32, i32, %class.fixed_bit_vector, [4 x i8] }>
%class.small_object_allocator = type { [32 x ptr], [32 x ptr], i64 }

; Function Attrs: mustprogress nounwind uwtable
define hidden noundef nonnull align 4 dereferenceable(4) ptr @_ZNK24fixed_bit_vector_manager7set_negER16fixed_bit_vector(ptr noundef nonnull align 8 dereferenceable(540) %0, ptr noundef nonnull align 4 dereferenceable(4) %1) #6 align 2 {
  %3 = alloca ptr, align 8
  %4 = alloca ptr, align 8
  %5 = alloca i32, align 4
  store ptr %0, ptr %3, align 8, !tbaa !18
  store ptr %1, ptr %4, align 8, !tbaa !3
  %6 = load ptr, ptr %3, align 8
  call void @llvm.lifetime.start.p0(i64 4, ptr %5) #3
  store i32 0, ptr %5, align 4, !tbaa !8
  br label %7

7:                                                ; preds = %26, %2
  %8 = load i32, ptr %5, align 4, !tbaa !8
  %9 = getelementptr inbounds nuw %class.fixed_bit_vector_manager, ptr %6, i32 0, i32 3
  %10 = load i32, ptr %9, align 8, !tbaa !25
  %11 = icmp ult i32 %8, %10
  br i1 %11, label %13, label %12

12:                                               ; preds = %7
  call void @llvm.lifetime.end.p0(i64 4, ptr %5) #3
  br label %29

13:                                               ; preds = %7
  %14 = load ptr, ptr %4, align 8, !tbaa !3
  %15 = getelementptr inbounds nuw %class.fixed_bit_vector, ptr %14, i32 0, i32 0
  %16 = load i32, ptr %5, align 4, !tbaa !8
  %17 = zext i32 %16 to i64
  %18 = getelementptr inbounds nuw [1 x i32], ptr %15, i64 0, i64 %17
  %19 = load i32, ptr %18, align 4, !tbaa !8
  %20 = xor i32 %19, -1
  %21 = load ptr, ptr %4, align 8, !tbaa !3
  %22 = getelementptr inbounds nuw %class.fixed_bit_vector, ptr %21, i32 0, i32 0
  %23 = load i32, ptr %5, align 4, !tbaa !8
  %24 = zext i32 %23 to i64
  %25 = getelementptr inbounds nuw [1 x i32], ptr %22, i64 0, i64 %24
  store i32 %20, ptr %25, align 4, !tbaa !8
  br label %26

26:                                               ; preds = %13
  %27 = load i32, ptr %5, align 4, !tbaa !8
  %28 = add i32 %27, 1
  store i32 %28, ptr %5, align 4, !tbaa !8
  br label %7, !llvm.loop !30

29:                                               ; preds = %12
  %30 = load ptr, ptr %4, align 8, !tbaa !3
  ret ptr %30
}