; Function Attrs: mustprogress nofree norecurse nosync nounwind memory(argmem: readwrite) uwtable
define hidden noundef nonnull align 4 dereferenceable(4) ptr @_ZNK24fixed_bit_vector_manager7set_negER16fixed_bit_vector(ptr noundef nonnull readonly align 8 captures(none) dereferenceable(540) %0, ptr noundef nonnull returned align 4 captures(ret: address, provenance) dereferenceable(4) %1) local_unnamed_addr #3 align 2 {
  %3 = getelementptr inbounds nuw i8, ptr %0, i64 528
  %4 = load i32, ptr %3, align 8, !tbaa !16
  %.not = icmp eq i32 %4, 0
  br i1 %.not, label %._crit_edge, label %.lr.ph

._crit_edge:                                      ; preds = %.lr.ph, %2
  ret ptr %1

.lr.ph:                                           ; preds = %2, %.lr.ph
  %indvars.iv = phi i64 [ %indvars.iv.next, %.lr.ph ], [ 0, %2 ]
  %5 = getelementptr inbounds nuw [1 x i32], ptr %1, i64 0, i64 %indvars.iv
  %6 = load i32, ptr %5, align 4, !tbaa !3
  %7 = xor i32 %6, -1
  store i32 %7, ptr %5, align 4, !tbaa !3
  %indvars.iv.next = add nuw nsw i64 %indvars.iv, 1
  %8 = load i32, ptr %3, align 8, !tbaa !16
  %9 = zext i32 %8 to i64
  %10 = icmp samesign ult i64 %indvars.iv.next, %9
  br i1 %10, label %.lr.ph, label %._crit_edge, !llvm.loop !21
}